target datalayout = "e-m:e-p270:32:32-p271:32:32-p272:64:64-i64:64-i128:128-f80:128-n8:16:32:64-S128"
target triple = "x86_64-pc-linux-gnu"

%struct.mi_stats_s = type { %struct.mi_stat_count_s, %struct.mi_stat_count_s, %struct.mi_stat_count_s, %struct.mi_stat_count_s, %struct.mi_stat_count_s, %struct.mi_stat_count_s, %struct.mi_stat_count_s, %struct.mi_stat_count_s, %struct.mi_stat_count_s, %struct.mi_stat_count_s, %struct.mi_stat_count_s, %struct.mi_stat_count_s, %struct.mi_stat_count_s, %struct.mi_stat_count_s, %struct.mi_stat_count_s, %struct.mi_stat_counter_s, %struct.mi_stat_counter_s, %struct.mi_stat_counter_s, %struct.mi_stat_counter_s, %struct.mi_stat_counter_s, %struct.mi_stat_counter_s, %struct.mi_stat_counter_s, %struct.mi_stat_counter_s, %struct.mi_stat_counter_s, %struct.mi_stat_counter_s, %struct.mi_stat_counter_s, %struct.mi_stat_counter_s, %struct.mi_stat_counter_s }
%struct.mi_stat_count_s = type { i64, i64, i64, i64 }
%struct.mi_stat_counter_s = type { i64, i64 }

@_mi_stats_main = external global %struct.mi_stats_s, align 64

; Function Attrs: inlinehint nounwind uwtable
define internal i64 @mi_atomic_addi64_relaxed(ptr noundef %0, i64 noundef %1) #1 {
  %3 = alloca ptr, align 8
  %4 = alloca i64, align 8
  %5 = alloca i64, align 8
  %6 = alloca i64, align 8
  store ptr %0, ptr %3, align 8, !tbaa !14
  store i64 %1, ptr %4, align 8, !tbaa !8
  %7 = load ptr, ptr %3, align 8, !tbaa !14
  %8 = load i64, ptr %4, align 8, !tbaa !8
  store i64 %8, ptr %5, align 8, !tbaa !8
  %9 = load i64, ptr %5, align 8
  %10 = atomicrmw add ptr %7, i64 %9 monotonic, align 8
  store i64 %10, ptr %6, align 8
  %11 = load i64, ptr %6, align 8, !tbaa !8
  ret i64 %11
}

; Function Attrs: nounwind uwtable
define internal zeroext i1 @mi_is_in_main(ptr noundef %0) #0 {
  %2 = alloca ptr, align 8
  store ptr %0, ptr %2, align 8, !tbaa !13
  %3 = load ptr, ptr %2, align 8, !tbaa !13
  %4 = icmp uge ptr %3, @_mi_stats_main
  br i1 %4, label %5, label %8

5:                                                ; preds = %1
  %6 = load ptr, ptr %2, align 8, !tbaa !13
  %7 = icmp ult ptr %6, getelementptr inbounds nuw (i8, ptr @_mi_stats_main, i64 688)
  br label %8

8:                                                ; preds = %5, %1
  %9 = phi i1 [ false, %1 ], [ %7, %5 ]
  ret i1 %9
}

; Function Attrs: nounwind uwtable
define internal void @mi_stat_adjust(ptr noundef %0, i64 noundef %1) #0 {
  %3 = alloca ptr, align 8
  %4 = alloca i64, align 8
  store ptr %0, ptr %3, align 8, !tbaa !16
  store i64 %1, ptr %4, align 8, !tbaa !8
  %5 = load i64, ptr %4, align 8, !tbaa !8
  %6 = icmp eq i64 %5, 0
  br i1 %6, label %7, label %8

7:                                                ; preds = %2
  br label %46

8:                                                ; preds = %2
  %9 = load ptr, ptr %3, align 8, !tbaa !16
  %10 = call zeroext i1 @mi_is_in_main(ptr noundef %9) #6
  %11 = xor i1 %10, true
  %12 = xor i1 %11, true
  %13 = zext i1 %12 to i32
  %14 = sext i32 %13 to i64
  %15 = call i64 @llvm.expect.i64(i64 %14, i64 0)
  %16 = icmp ne i64 %15, 0
  br i1 %16, label %17, label %30

17:                                               ; preds = %8
  %18 = load ptr, ptr %3, align 8, !tbaa !16
  %19 = getelementptr inbounds nuw %struct.mi_stat_count_s, ptr %18, i32 0, i32 3
  %20 = load i64, ptr %4, align 8, !tbaa !8
  %21 = call i64 @mi_atomic_addi64_relaxed(ptr noundef %19, i64 noundef %20) #6
  %22 = load ptr, ptr %3, align 8, !tbaa !16
  %23 = getelementptr inbounds nuw %struct.mi_stat_count_s, ptr %22, i32 0, i32 0
  %24 = load i64, ptr %4, align 8, !tbaa !8
  %25 = call i64 @mi_atomic_addi64_relaxed(ptr noundef %23, i64 noundef %24) #6
  %26 = load ptr, ptr %3, align 8, !tbaa !16
  %27 = getelementptr inbounds nuw %struct.mi_stat_count_s, ptr %26, i32 0, i32 1
  %28 = load i64, ptr %4, align 8, !tbaa !8
  %29 = call i64 @mi_atomic_addi64_relaxed(ptr noundef %27, i64 noundef %28) #6
  br label %46

30:                                               ; preds = %8
  %31 = load i64, ptr %4, align 8, !tbaa !8
  %32 = load ptr, ptr %3, align 8, !tbaa !16
  %33 = getelementptr inbounds nuw %struct.mi_stat_count_s, ptr %32, i32 0, i32 3
  %34 = load i64, ptr %33, align 8, !tbaa !18
  %35 = add nsw i64 %34, %31
  store i64 %35, ptr %33, align 8, !tbaa !18
  %36 = load i64, ptr %4, align 8, !tbaa !8
  %37 = load ptr, ptr %3, align 8, !tbaa !16
  %38 = getelementptr inbounds nuw %struct.mi_stat_count_s, ptr %37, i32 0, i32 0
  %39 = load i64, ptr %38, align 8, !tbaa !21
  %40 = add nsw i64 %39, %36
  store i64 %40, ptr %38, align 8, !tbaa !21
  %41 = load i64, ptr %4, align 8, !tbaa !8
  %42 = load ptr, ptr %3, align 8, !tbaa !16
  %43 = getelementptr inbounds nuw %struct.mi_stat_count_s, ptr %42, i32 0, i32 1
  %44 = load i64, ptr %43, align 8, !tbaa !22
  %45 = add nsw i64 %44, %41
  store i64 %45, ptr %43, align 8, !tbaa !22
  br label %46

46:                                               ; preds = %7, %30, %17
  ret void
}

; Function Attrs: nounwind uwtable
define hidden void @_mi_stat_adjust_increase(ptr noundef %0, i64 noundef %1) #0 {
  %3 = alloca ptr, align 8
  %4 = alloca i64, align 8
  store ptr %0, ptr %3, align 8, !tbaa !16
  store i64 %1, ptr %4, align 8, !tbaa !8
  %5 = load ptr, ptr %3, align 8, !tbaa !16
  %6 = load i64, ptr %4, align 8, !tbaa !8
  call void @mi_stat_adjust(ptr noundef %5, i64 noundef %6) #6
  ret void
}